Certificate:
    Data:
        Version: 3 (0x2)
        Serial Number: 1 (0x1)
        Signature Algorithm: sha1WithRSAEncryption
        Issuer: C=CN, ST=Beijing, L=Beijing, O=Orz, OU=Orz, CN=Nous/emailAddress=dsinnnnn@yahoo.com.cn
        Validity
            Not Before: Apr 15 06:26:53 2009 GMT
            Not After : Apr 15 06:26:53 2010 GMT
        Subject: C=CN, ST=Beijing, O=Orz, OU=Orz, CN=Nous/emailAddress=dsinnnnn@yahoo.com.cn
        Subject Public Key Info:
            Public Key Algorithm: rsaEncryption
            RSA Public Key: (2048 bit)
                Modulus (2048 bit):
                    00:a8:94:a4:89:0c:19:bf:c6:2f:a8:2b:c2:4c:28:
                    a9:1d:09:91:4a:a8:0a:cb:11:2d:c7:69:af:3f:b6:
                    f1:2c:6b:05:a1:c7:e6:46:b8:c3:e8:6b:89:0d:a7:
                    89:1b:69:7c:81:fc:d1:21:5b:5a:36:a4:a6:8c:2f:
                    d8:3d:cc:a6:e9:0f:6b:01:da:28:8b:82:e6:ed:b8:
                    8c:bb:5b:ac:d4:ae:76:e0:1c:c9:6a:47:d8:6d:7f:
                    ad:f6:bf:d8:4e:f4:d6:62:1c:31:f4:08:29:56:c4:
                    9d:6a:45:5f:5b:7f:82:5e:c8:27:f1:76:95:93:62:
                    07:b6:28:9f:85:69:67:c2:01:d7:55:29:1a:1d:c7:
                    eb:99:c7:5f:c3:93:90:5d:76:66:70:72:89:62:a1:
                    d5:50:b0:db:83:d1:a7:52:38:9e:ce:d4:3f:d9:28:
                    09:30:c7:3a:c3:40:31:2f:12:94:23:48:cc:2f:8e:
                    54:31:37:ca:91:29:c6:c8:0c:3a:5f:b9:d5:b7:02:
                    bc:74:4c:91:df:b6:fd:72:24:cc:94:38:2e:f5:5c:
                    9c:1a:b0:d6:b7:6d:35:65:5a:30:69:d9:3e:46:eb:
                    4d:94:75:9c:60:59:08:d1:0c:a5:54:e2:74:1d:af:
                    72:4d:6f:7a:62:6f:05:3c:21:4c:e9:3e:2c:45:07:
                    b8:b1
                Exponent: 65537 (0x10001)
        X509v3 extensions:
            X509v3 Basic Constraints: 
                CA:FALSE
            Netscape Comment: 
                OpenSSL Generated Certificate
            X509v3 Subject Key Identifier: 
                BD:81:91:12:A8:F1:51:B0:A7:CA:0B:EA:E0:9C:10:37:33:3D:F6:93
            X509v3 Authority Key Identifier: 
                keyid:D5:6F:09:37:D8:58:59:33:54:A1:93:D1:07:E7:17:39:C4:A7:AE:DF

    Signature Algorithm: sha1WithRSAEncryption
        97:2e:9f:28:39:a2:ae:e3:9e:10:91:6b:7f:d9:65:84:a9:79:
        8f:95:cb:16:78:2a:fa:a8:71:9b:24:5f:5d:8e:b8:5b:91:6c:
        63:d1:83:74:51:d4:ae:ea:ea:62:25:4a:61:1e:c1:8d:8c:c7:
        32:49:ec:46:7d:1b:e9:54:42:5d:1c:27:d7:e4:04:35:ad:a3:
        e2:44:84:33:11:68:fb:5a:46:e7:9d:5d:02:20:57:bf:2a:f8:
        76:dd:d0:d3:70:0c:66:63:6a:cf:22:52:c3:8b:c2:34:04:9a:
        74:29:5c:6e:bf:e1:e1:35:38:39:d8:71:b4:f6:00:9a:21:8c:
        69:29:45:c2:77:a4:8c:77:a4:3d:23:39:f9:fb:19:52:e7:6c:
        b3:30:49:75:05:6b:fb:b3:dd:04:d3:bd:5b:55:da:fb:4b:ff:
        79:5b:b3:76:26:b7:22:7f:13:15:8a:f1:67:d0:e8:7c:2f:95:
        17:2c:bf:d7:26:eb:cb:4a:41:ca:23:09:52:70:1e:70:37:09:
        86:2a:24:67:d4:db:aa:30:38:a7:5c:3c:de:83:75:5b:82:50:
        6b:28:b9:ad:f6:a8:84:51:25:83:7b:10:cd:da:c5:53:52:02:
        57:53:4e:e4:ba:d3:33:6f:d5:69:7d:ed:4b:92:d3:bb:03:65:
        6b:37:c3:1a
-----BEGIN CERTIFICATE-----
MIID6TCCAtGgAwIBAgIBATANBgkqhkiG9w0BAQUFADCBgjELMAkGA1UEBhMCQ04x
EDAOBgNVBAgTB0JlaWppbmcxEDAOBgNVBAcTB0JlaWppbmcxDDAKBgNVBAoTA09y
ejEMMAoGA1UECxMDT3J6MQ0wCwYDVQQDEwROb3VzMSQwIgYJKoZIhvcNAQkBFhVk
c2lubm5ubkB5YWhvby5jb20uY24wHhcNMDkwNDE1MDYyNjUzWhcNMTAwNDE1MDYy
NjUzWjBwMQswCQYDVQQGEwJDTjEQMA4GA1UECBMHQmVpamluZzEMMAoGA1UEChMD
T3J6MQwwCgYDVQQLEwNPcnoxDTALBgNVBAMTBE5vdXMxJDAiBgkqhkiG9w0BCQEW
FWRzaW5ubm5uQHlhaG9vLmNvbS5jbjCCASIwDQYJKoZIhvcNAQEBBQADggEPADCC
AQoCggEBAKiUpIkMGb/GL6grwkwoqR0JkUqoCssRLcdprz+28SxrBaHH5ka4w+hr
iQ2niRtpfIH80SFbWjakpowv2D3MpukPawHaKIuC5u24jLtbrNSuduAcyWpH2G1/
rfa/2E701mIcMfQIKVbEnWpFX1t/gl7IJ/F2lZNiB7Yon4VpZ8IB11UpGh3H65nH
X8OTkF12ZnByiWKh1VCw24PRp1I4ns7UP9koCTDHOsNAMS8SlCNIzC+OVDE3ypEp
xsgMOl+51bcCvHRMkd+2/XIkzJQ4LvVcnBqw1rdtNWVaMGnZPkbrTZR1nGBZCNEM
pVTidB2vck1vemJvBTwhTOk+LEUHuLECAwEAAaN7MHkwCQYDVR0TBAIwADAsBglg
hkgBhvhCAQ0EHxYdT3BlblNTTCBHZW5lcmF0ZWQgQ2VydGlmaWNhdGUwHQYDVR0O
BBYEFL2BkRKo8VGwp8oL6uCcEDczPfaTMB8GA1UdIwQYMBaAFNVvCTfYWFkzVKGT
0QfnFznEp67fMA0GCSqGSIb3DQEBBQUAA4IBAQCXLp8oOaKu454QkWt/2WWEqXmP
lcsWeCr6qHGbJF9djrhbkWxj0YN0UdSu6upiJUphHsGNjMcySexGfRvpVEJdHCfX
5AQ1raPiRIQzEWj7WkbnnV0CIFe/Kvh23dDTcAxmY2rPIlLDi8I0BJp0KVxuv+Hh
NTg52HG09gCaIYxpKUXCd6SMd6Q9Izn5+xlS52yzMEl1BWv7s90E071bVdr7S/95
W7N2JrcifxMVivFn0Oh8L5UXLL/XJuvLSkHKIwlScB5wNwmGKiRn1NuqMDinXDze
g3VbglBrKLmt9qiEUSWDexDN2sVTUgJXU07kutMzb9Vpfe1LktO7A2VrN8Ma
-----END CERTIFICATE-----
